target datalayout = "e-m:e-p270:32:32-p271:32:32-p272:64:64-i64:64-i128:128-f80:128-n8:16:32:64-S128"
target triple = "x86_64-pc-linux-gnu"

%struct.WaveFile = type { %struct.WaveChunk, %struct.WaveFormat, %struct.WaveFact, i64, ptr, i32, i32, i32 }
%struct.WaveChunk = type { i32, i32, i64, ptr, i64 }
%struct.WaveFormat = type { i16, i16, i16, i32, i32, i16, i16, i16, i16, i32, i32, [16 x i8] }
%struct.WaveFact = type { i32, i32 }

@.str.39 = private unnamed_addr constant [31 x i8] c"Data of WAVE fmt chunk too big\00", align 1
@.str.40 = private unnamed_addr constant [47 x i8] c"Missing wBitsPerSample field in WAVE fmt chunk\00", align 1
@.str.41 = private unnamed_addr constant [33 x i8] c"Extensible WAVE header too small\00", align 1

; Function Attrs: nounwind uwtable
define internal zeroext i1 @WaveReadFormat(ptr noundef %0) #0 {
  %2 = alloca i1, align 1
  %3 = alloca ptr, align 8
  %4 = alloca ptr, align 8
  %5 = alloca ptr, align 8
  %6 = alloca ptr, align 8
  %7 = alloca i64, align 8
  %8 = alloca i32, align 4
  store ptr %0, ptr %3, align 8
  call void @llvm.lifetime.start.p0(i64 8, ptr %4) #7
  %9 = load ptr, ptr %3, align 8
  %10 = getelementptr inbounds nuw %struct.WaveFile, ptr %9, i32 0, i32 0
  store ptr %10, ptr %4, align 8
  call void @llvm.lifetime.start.p0(i64 8, ptr %5) #7
  %11 = load ptr, ptr %3, align 8
  %12 = getelementptr inbounds nuw %struct.WaveFile, ptr %11, i32 0, i32 1
  store ptr %12, ptr %5, align 8
  call void @llvm.lifetime.start.p0(i64 8, ptr %6) #7
  call void @llvm.lifetime.start.p0(i64 8, ptr %7) #7
  %13 = load ptr, ptr %4, align 8
  %14 = getelementptr inbounds nuw %struct.WaveChunk, ptr %13, i32 0, i32 4
  %15 = load i64, ptr %14, align 8
  store i64 %15, ptr %7, align 8
  %16 = load i64, ptr %7, align 8
  %17 = icmp ugt i64 %16, 2147483647
  br i1 %17, label %18, label %20

18:                                               ; preds = %1
  %19 = call zeroext i1 (ptr, ...) @SDL_SetError_REAL(ptr noundef @.str.39)
  store i1 %19, ptr %2, align 1
  store i32 1, ptr %8, align 4
  br label %146

20:                                               ; preds = %1
  %21 = load ptr, ptr %4, align 8
  %22 = getelementptr inbounds nuw %struct.WaveChunk, ptr %21, i32 0, i32 3
  %23 = load ptr, ptr %22, align 8
  %24 = load ptr, ptr %4, align 8
  %25 = getelementptr inbounds nuw %struct.WaveChunk, ptr %24, i32 0, i32 4
  %26 = load i64, ptr %25, align 8
  %27 = trunc i64 %26 to i32
  %28 = sext i32 %27 to i64
  %29 = call ptr @SDL_IOFromConstMem_REAL(ptr noundef %23, i64 noundef %28)
  store ptr %29, ptr %6, align 8
  %30 = load ptr, ptr %6, align 8
  %31 = icmp ne ptr %30, null
  br i1 %31, label %33, label %32

32:                                               ; preds = %20
  store i1 false, ptr %2, align 1
  store i32 1, ptr %8, align 4
  br label %146

33:                                               ; preds = %20
  %34 = load ptr, ptr %6, align 8
  %35 = load ptr, ptr %5, align 8
  %36 = getelementptr inbounds nuw %struct.WaveFormat, ptr %35, i32 0, i32 0
  %37 = call zeroext i1 @SDL_ReadU16LE_REAL(ptr noundef %34, ptr noundef %36)
  br i1 %37, label %38, label %58

38:                                               ; preds = %33
  %39 = load ptr, ptr %6, align 8
  %40 = load ptr, ptr %5, align 8
  %41 = getelementptr inbounds nuw %struct.WaveFormat, ptr %40, i32 0, i32 2
  %42 = call zeroext i1 @SDL_ReadU16LE_REAL(ptr noundef %39, ptr noundef %41)
  br i1 %42, label %43, label %58

43:                                               ; preds = %38
  %44 = load ptr, ptr %6, align 8
  %45 = load ptr, ptr %5, align 8
  %46 = getelementptr inbounds nuw %struct.WaveFormat, ptr %45, i32 0, i32 3
  %47 = call zeroext i1 @SDL_ReadU32LE_REAL(ptr noundef %44, ptr noundef %46)
  br i1 %47, label %48, label %58

48:                                               ; preds = %43
  %49 = load ptr, ptr %6, align 8
  %50 = load ptr, ptr %5, align 8
  %51 = getelementptr inbounds nuw %struct.WaveFormat, ptr %50, i32 0, i32 4
  %52 = call zeroext i1 @SDL_ReadU32LE_REAL(ptr noundef %49, ptr noundef %51)
  br i1 %52, label %53, label %58

53:                                               ; preds = %48
  %54 = load ptr, ptr %6, align 8
  %55 = load ptr, ptr %5, align 8
  %56 = getelementptr inbounds nuw %struct.WaveFormat, ptr %55, i32 0, i32 5
  %57 = call zeroext i1 @SDL_ReadU16LE_REAL(ptr noundef %54, ptr noundef %56)
  br i1 %57, label %59, label %58

58:                                               ; preds = %53, %48, %43, %38, %33
  store i1 false, ptr %2, align 1
  store i32 1, ptr %8, align 4
  br label %146

59:                                               ; preds = %53
  %60 = load ptr, ptr %5, align 8
  %61 = getelementptr inbounds nuw %struct.WaveFormat, ptr %60, i32 0, i32 0
  %62 = load i16, ptr %61, align 4
  %63 = load ptr, ptr %5, align 8
  %64 = getelementptr inbounds nuw %struct.WaveFormat, ptr %63, i32 0, i32 1
  store i16 %62, ptr %64, align 2
  %65 = load i64, ptr %7, align 8
  %66 = icmp uge i64 %65, 16
  br i1 %66, label %67, label %74

67:                                               ; preds = %59
  %68 = load ptr, ptr %6, align 8
  %69 = load ptr, ptr %5, align 8
  %70 = getelementptr inbounds nuw %struct.WaveFormat, ptr %69, i32 0, i32 6
  %71 = call zeroext i1 @SDL_ReadU16LE_REAL(ptr noundef %68, ptr noundef %70)
  br i1 %71, label %73, label %72

72:                                               ; preds = %67
  store i1 false, ptr %2, align 1
  store i32 1, ptr %8, align 4
  br label %146

73:                                               ; preds = %67
  br label %85

74:                                               ; preds = %59
  %75 = load ptr, ptr %5, align 8
  %76 = getelementptr inbounds nuw %struct.WaveFormat, ptr %75, i32 0, i32 1
  %77 = load i16, ptr %76, align 2
  %78 = zext i16 %77 to i32
  %79 = icmp eq i32 %78, 1
  br i1 %79, label %80, label %84

80:                                               ; preds = %74
  %81 = load ptr, ptr %6, align 8
  %82 = call zeroext i1 @SDL_CloseIO_REAL(ptr noundef %81)
  %83 = call zeroext i1 (ptr, ...) @SDL_SetError_REAL(ptr noundef @.str.40)
  store i1 %83, ptr %2, align 1
  store i32 1, ptr %8, align 4
  br label %146

84:                                               ; preds = %74
  br label %85

85:                                               ; preds = %84, %73
  %86 = load i64, ptr %7, align 8
  %87 = icmp uge i64 %86, 18
  br i1 %87, label %88, label %95

88:                                               ; preds = %85
  %89 = load ptr, ptr %6, align 8
  %90 = load ptr, ptr %5, align 8
  %91 = getelementptr inbounds nuw %struct.WaveFormat, ptr %90, i32 0, i32 7
  %92 = call zeroext i1 @SDL_ReadU16LE_REAL(ptr noundef %89, ptr noundef %91)
  br i1 %92, label %94, label %93

93:                                               ; preds = %88
  store i1 false, ptr %2, align 1
  store i32 1, ptr %8, align 4
  br label %146

94:                                               ; preds = %88
  br label %95

95:                                               ; preds = %94, %85
  %96 = load ptr, ptr %5, align 8
  %97 = getelementptr inbounds nuw %struct.WaveFormat, ptr %96, i32 0, i32 0
  %98 = load i16, ptr %97, align 4
  %99 = zext i16 %98 to i32
  %100 = icmp eq i32 %99, 65534
  br i1 %100, label %101, label %143

101:                                              ; preds = %95
  %102 = load i64, ptr %7, align 8
  %103 = icmp ult i64 %102, 40
  br i1 %103, label %110, label %104

104:                                              ; preds = %101
  %105 = load ptr, ptr %5, align 8
  %106 = getelementptr inbounds nuw %struct.WaveFormat, ptr %105, i32 0, i32 7
  %107 = load i16, ptr %106, align 4
  %108 = zext i16 %107 to i32
  %109 = icmp slt i32 %108, 22
  br i1 %109, label %110, label %114

110:                                              ; preds = %104, %101
  %111 = load ptr, ptr %6, align 8
  %112 = call zeroext i1 @SDL_CloseIO_REAL(ptr noundef %111)
  %113 = call zeroext i1 (ptr, ...) @SDL_SetError_REAL(ptr noundef @.str.41)
  store i1 %113, ptr %2, align 1
  store i32 1, ptr %8, align 4
  br label %146

114:                                              ; preds = %104
  %115 = load ptr, ptr %6, align 8
  %116 = load ptr, ptr %5, align 8
  %117 = getelementptr inbounds nuw %struct.WaveFormat, ptr %116, i32 0, i32 8
  %118 = call zeroext i1 @SDL_ReadU16LE_REAL(ptr noundef %115, ptr noundef %117)
  br i1 %118, label %119, label %131

119:                                              ; preds = %114
  %120 = load ptr, ptr %6, align 8
  %121 = load ptr, ptr %5, align 8
  %122 = getelementptr inbounds nuw %struct.WaveFormat, ptr %121, i32 0, i32 10
  %123 = call zeroext i1 @SDL_ReadU32LE_REAL(ptr noundef %120, ptr noundef %122)
  br i1 %123, label %124, label %131

124:                                              ; preds = %119
  %125 = load ptr, ptr %6, align 8
  %126 = load ptr, ptr %5, align 8
  %127 = getelementptr inbounds nuw %struct.WaveFormat, ptr %126, i32 0, i32 11
  %128 = getelementptr inbounds [16 x i8], ptr %127, i64 0, i64 0
  %129 = call i64 @SDL_ReadIO_REAL(ptr noundef %125, ptr noundef %128, i64 noundef 16)
  %130 = icmp ne i64 %129, 16
  br i1 %130, label %131, label %132

131:                                              ; preds = %124, %119, %114
  br label %132

132:                                              ; preds = %131, %124
  %133 = load ptr, ptr %5, align 8
  %134 = getelementptr inbounds nuw %struct.WaveFormat, ptr %133, i32 0, i32 8
  %135 = load i16, ptr %134, align 2
  %136 = zext i16 %135 to i32
  %137 = load ptr, ptr %5, align 8
  %138 = getelementptr inbounds nuw %struct.WaveFormat, ptr %137, i32 0, i32 9
  store i32 %136, ptr %138, align 4
  %139 = load ptr, ptr %5, align 8
  %140 = call zeroext i16 @WaveGetFormatGUIDEncoding(ptr noundef %139)
  %141 = load ptr, ptr %5, align 8
  %142 = getelementptr inbounds nuw %struct.WaveFormat, ptr %141, i32 0, i32 1
  store i16 %140, ptr %142, align 2
  br label %143

143:                                              ; preds = %132, %95
  %144 = load ptr, ptr %6, align 8
  %145 = call zeroext i1 @SDL_CloseIO_REAL(ptr noundef %144)
  store i1 true, ptr %2, align 1
  store i32 1, ptr %8, align 4
  br label %146

146:                                              ; preds = %143, %110, %93, %80, %72, %58, %32, %18
  call void @llvm.lifetime.end.p0(i64 8, ptr %7) #7
  call void @llvm.lifetime.end.p0(i64 8, ptr %6) #7
  call void @llvm.lifetime.end.p0(i64 8, ptr %5) #7
  call void @llvm.lifetime.end.p0(i64 8, ptr %4) #7
  %147 = load i1, ptr %2, align 1
  ret i1 %147
}