; Function Attrs: nounwind uwtable
define internal fastcc zeroext i1 @WaveReadFormat(ptr noundef nonnull %0) unnamed_addr #0 {
  %2 = getelementptr inbounds nuw i8, ptr %0, i64 32
  %3 = getelementptr inbounds nuw i8, ptr %0, i64 24
  %4 = load i64, ptr %3, align 8
  %5 = icmp ugt i64 %4, 2147483647
  br i1 %5, label %6, label %8

6:                                                ; preds = %1
  %7 = tail call zeroext i1 (ptr, ...) @SDL_SetError_REAL(ptr noundef nonnull @.str.39) #8
  br label %70

8:                                                ; preds = %1
  %9 = getelementptr inbounds nuw i8, ptr %0, i64 16
  %10 = load ptr, ptr %9, align 8
  %11 = tail call ptr @SDL_IOFromConstMem_REAL(ptr noundef %10, i64 noundef %4) #8
  %.not = icmp eq ptr %11, null
  br i1 %.not, label %70, label %12

12:                                               ; preds = %8
  %13 = tail call zeroext i1 @SDL_ReadU16LE_REAL(ptr noundef nonnull %11, ptr noundef nonnull %2) #8
  br i1 %13, label %14, label %70

14:                                               ; preds = %12
  %15 = getelementptr inbounds nuw i8, ptr %0, i64 36
  %16 = tail call zeroext i1 @SDL_ReadU16LE_REAL(ptr noundef nonnull %11, ptr noundef nonnull %15) #8
  br i1 %16, label %17, label %70

17:                                               ; preds = %14
  %18 = getelementptr inbounds nuw i8, ptr %0, i64 40
  %19 = tail call zeroext i1 @SDL_ReadU32LE_REAL(ptr noundef nonnull %11, ptr noundef nonnull %18) #8
  br i1 %19, label %20, label %70

20:                                               ; preds = %17
  %21 = getelementptr inbounds nuw i8, ptr %0, i64 44
  %22 = tail call zeroext i1 @SDL_ReadU32LE_REAL(ptr noundef nonnull %11, ptr noundef nonnull %21) #8
  br i1 %22, label %23, label %70

23:                                               ; preds = %20
  %24 = getelementptr inbounds nuw i8, ptr %0, i64 48
  %25 = tail call zeroext i1 @SDL_ReadU16LE_REAL(ptr noundef nonnull %11, ptr noundef nonnull %24) #8
  br i1 %25, label %26, label %70

26:                                               ; preds = %23
  %27 = load i16, ptr %2, align 4
  %28 = getelementptr inbounds nuw i8, ptr %0, i64 34
  store i16 %27, ptr %28, align 2
  %29 = icmp samesign ugt i64 %4, 15
  br i1 %29, label %30, label %33

30:                                               ; preds = %26
  %31 = getelementptr inbounds nuw i8, ptr %0, i64 50
  %32 = tail call zeroext i1 @SDL_ReadU16LE_REAL(ptr noundef nonnull %11, ptr noundef nonnull %31) #8
  br i1 %32, label %38, label %70

33:                                               ; preds = %26
  %34 = icmp eq i16 %27, 1
  br i1 %34, label %35, label %.thread

35:                                               ; preds = %33
  %36 = tail call zeroext i1 @SDL_CloseIO_REAL(ptr noundef nonnull %11) #8
  %37 = tail call zeroext i1 (ptr, ...) @SDL_SetError_REAL(ptr noundef nonnull @.str.40) #8
  br label %70

38:                                               ; preds = %30
  %39 = icmp samesign ugt i64 %4, 17
  br i1 %39, label %40, label %.thread

40:                                               ; preds = %38
  %41 = getelementptr inbounds nuw i8, ptr %0, i64 52
  %42 = tail call zeroext i1 @SDL_ReadU16LE_REAL(ptr noundef nonnull %11, ptr noundef nonnull %41) #8
  br i1 %42, label %.thread, label %70

.thread:                                          ; preds = %33, %40, %38
  %43 = load i16, ptr %2, align 4
  %44 = icmp eq i16 %43, -2
  br i1 %44, label %45, label %68

45:                                               ; preds = %.thread
  %46 = icmp samesign ult i64 %4, 40
  br i1 %46, label %51, label %47

47:                                               ; preds = %45
  %48 = getelementptr inbounds nuw i8, ptr %0, i64 52
  %49 = load i16, ptr %48, align 4
  %50 = icmp ult i16 %49, 22
  br i1 %50, label %51, label %54

51:                                               ; preds = %47, %45
  %52 = tail call zeroext i1 @SDL_CloseIO_REAL(ptr noundef nonnull %11) #8
  %53 = tail call zeroext i1 (ptr, ...) @SDL_SetError_REAL(ptr noundef nonnull @.str.41) #8
  br label %70

54:                                               ; preds = %47
  %55 = getelementptr inbounds nuw i8, ptr %0, i64 54
  %56 = tail call zeroext i1 @SDL_ReadU16LE_REAL(ptr noundef nonnull %11, ptr noundef nonnull %55) #8
  br i1 %56, label %57, label %63

57:                                               ; preds = %54
  %58 = getelementptr inbounds nuw i8, ptr %0, i64 60
  %59 = tail call zeroext i1 @SDL_ReadU32LE_REAL(ptr noundef nonnull %11, ptr noundef nonnull %58) #8
  br i1 %59, label %60, label %63

60:                                               ; preds = %57
  %61 = getelementptr inbounds nuw i8, ptr %0, i64 64
  %62 = tail call i64 @SDL_ReadIO_REAL(ptr noundef nonnull %11, ptr noundef nonnull %61, i64 noundef 16) #8
  br label %63

63:                                               ; preds = %60, %54, %57
  %64 = load i16, ptr %55, align 2
  %65 = zext i16 %64 to i32
  %66 = getelementptr inbounds nuw i8, ptr %0, i64 56
  store i32 %65, ptr %66, align 4
  %67 = tail call fastcc zeroext i16 @WaveGetFormatGUIDEncoding(ptr noundef %2)
  store i16 %67, ptr %28, align 2
  br label %68

68:                                               ; preds = %63, %.thread
  %69 = tail call zeroext i1 @SDL_CloseIO_REAL(ptr noundef nonnull %11) #8
  br label %70

70:                                               ; preds = %40, %30, %12, %14, %17, %20, %23, %8, %68, %51, %35, %6
  %.0 = phi i1 [ %7, %6 ], [ %53, %51 ], [ true, %68 ], [ %37, %35 ], [ false, %8 ], [ false, %23 ], [ false, %20 ], [ false, %17 ], [ false, %14 ], [ false, %12 ], [ false, %30 ], [ false, %40 ]
  ret i1 %.0
}